(dp0
I0
S'Parus_major'
p1
sI1
S'Fringilla_coelebs'
p2
sI2
S'Turdus_merula'
p3
sI3
S'Dendrocopos_major'
p4
sI4
S'Emberiza_citrinella'
p5
sI5
S'Chloris_chloris'
p6
sI6
S'Phoenicurus_phoenicurus'
p7
sI7
S'Phylloscopus_sibilatrix'
p8
sI8
S'Locustella_fluviatilis'
p9
sI9
S'Apus_apus'
p10
s.